target datalayout = "e-m:e-p270:32:32-p271:32:32-p272:64:64-i64:64-i128:128-f80:128-n8:16:32:64-S128"
target triple = "x86_64-unknown-linux-gnu"

%"class.hermes::hbc::BytecodeSerializer" = type { ptr, ptr, %"struct.hermes::BytecodeGenerationOptions", i64, i8, i32, i32, i32, %"class.llvh::SHA1" }
%"struct.hermes::BytecodeGenerationOptions" = type <{ i32, i8, i8, i8, i8, i8, i8, i8, i8, i32, i8, [3 x i8] }>
%"class.llvh::SHA1" = type { %struct.anon.35, [5 x i32] }
%struct.anon.35 = type { %union.anon, [5 x i32], i32, i8 }
%union.anon = type { [16 x i32] }

; Function Attrs: mustprogress nounwind uwtable
define hidden void @_ZN6hermes3hbc18BytecodeSerializer12finishLayoutERNS0_14BytecodeModuleE(ptr noundef nonnull align 8 dereferenceable(176) %this, ptr noundef nonnull align 8 dereferenceable(513) %BM) #0 align 2 {
entry:
  %this.addr = alloca ptr, align 8
  %BM.addr = alloca ptr, align 8
  store ptr %this, ptr %this.addr, align 8
  store ptr %BM, ptr %BM.addr, align 8
  %this1 = load ptr, ptr %this.addr, align 8
  %loc_ = getelementptr inbounds %"class.hermes::hbc::BytecodeSerializer", ptr %this1, i32 0, i32 3
  %0 = load i64, ptr %loc_, align 8
  %conv = trunc i64 %0 to i32
  %fileLength_ = getelementptr inbounds %"class.hermes::hbc::BytecodeSerializer", ptr %this1, i32 0, i32 5
  store i32 %conv, ptr %fileLength_, align 4
  %isLayout_ = getelementptr inbounds %"class.hermes::hbc::BytecodeSerializer", ptr %this1, i32 0, i32 4
  store i8 0, ptr %isLayout_, align 8
  %loc_2 = getelementptr inbounds %"class.hermes::hbc::BytecodeSerializer", ptr %this1, i32 0, i32 3
  store i64 0, ptr %loc_2, align 8
  ret void
}