; Function Attrs: mustprogress nofree norecurse nosync nounwind willreturn memory(argmem: readwrite) uwtable
define hidden void @_ZN6hermes3hbc18BytecodeSerializer12finishLayoutERNS0_14BytecodeModuleE(ptr noundef nonnull align 8 captures(none) dereferenceable(176) initializes((48, 49), (52, 56)) %this, ptr noundef nonnull readnone align 8 captures(none) dereferenceable(513) %BM) local_unnamed_addr #3 align 2 {
entry:
  %loc_ = getelementptr inbounds nuw i8, ptr %this, i64 40
  %0 = load i64, ptr %loc_, align 8
  %conv = trunc i64 %0 to i32
  %fileLength_ = getelementptr inbounds nuw i8, ptr %this, i64 52
  store i32 %conv, ptr %fileLength_, align 4
  %isLayout_ = getelementptr inbounds nuw i8, ptr %this, i64 48
  store i8 0, ptr %isLayout_, align 8
  store i64 0, ptr %loc_, align 8
  ret void
}